target datalayout = "e-m:e-p270:32:32-p271:32:32-p272:64:64-i64:64-i128:128-f80:128-n8:16:32:64-S128"
target triple = "x86_64-pc-linux-gnu"

%"class.grpc_core::json_detail::JsonObjectLoader.489" = type { i8 }

@_ZTVN9grpc_core11json_detail15LoaderInterfaceE = linkonce_odr unnamed_addr constant { [3 x ptr] } { [3 x ptr] [ptr null, ptr @_ZTIN9grpc_core11json_detail15LoaderInterfaceE, ptr @__cxa_pure_virtual] }, comdat, align 8
@_ZZN9grpc_core12_GLOBAL__N_110RbacConfig10RbacPolicy5Rules11AuditLogger10JsonLoaderERKNS_8JsonArgsEE6loader = internal global ptr null, align 8
@_ZGVZN9grpc_core12_GLOBAL__N_110RbacConfig10RbacPolicy5Rules11AuditLogger10JsonLoaderERKNS_8JsonArgsEE6loader = internal global i64 0, align 8

; Function Attrs: inlinehint mustprogress nounwind uwtable
define linkonce_odr void @_ZN9grpc_core11json_detail15LoaderInterfaceC2Ev(ptr noundef nonnull align 8 dereferenceable(8) %0) unnamed_addr #9 comdat align 2 {
  %2 = alloca ptr, align 8
  store ptr %0, ptr %2, align 8, !tbaa !657
  %3 = load ptr, ptr %2, align 8
  store ptr getelementptr inbounds inrange(-16, 8) ({ [3 x ptr] }, ptr @_ZTVN9grpc_core11json_detail15LoaderInterfaceE, i32 0, i32 0, i32 2), ptr %3, align 8, !tbaa !36
  ret void
}

; Function Attrs: mustprogress nounwind uwtable
define internal void @_ZN9grpc_core11json_detail24FinishedJsonObjectLoaderINS_12_GLOBAL__N_110RbacConfig10RbacPolicy5Rules11AuditLoggerELm0EvEC2ERKNS0_3VecINS0_7ElementELm0EEE(ptr noundef nonnull align 8 dereferenceable(8) %0, ptr noundef nonnull align 1 dereferenceable(1) %1) unnamed_addr #6 align 2 {
  %3 = alloca ptr, align 8
  %4 = alloca ptr, align 8
  store ptr %0, ptr %3, align 8, !tbaa !1170
  store ptr %1, ptr %4, align 8, !tbaa !692
  %5 = load ptr, ptr %3, align 8
  call void @_ZN9grpc_core11json_detail15LoaderInterfaceC2Ev(ptr noundef nonnull align 8 dereferenceable(8) %5) #3
  store ptr getelementptr inbounds inrange(-16, 8) ({ [3 x ptr] }, ptr @_ZTVN9grpc_core11json_detail24FinishedJsonObjectLoaderINS_12_GLOBAL__N_110RbacConfig10RbacPolicy5Rules11AuditLoggerELm0EvEE, i32 0, i32 0, i32 2), ptr %5, align 8, !tbaa !36
  ret void
}

; Function Attrs: mustprogress uwtable
define internal noundef ptr @_ZNK9grpc_core11json_detail16JsonObjectLoaderINS_12_GLOBAL__N_110RbacConfig10RbacPolicy5Rules11AuditLoggerELm0EE6FinishEv(ptr noundef nonnull align 1 dereferenceable(1) %0) #4 align 2 personality ptr @__gxx_personality_v0 {
  %2 = alloca ptr, align 8
  %3 = alloca ptr, align 8
  %4 = alloca i32, align 4
  store ptr %0, ptr %2, align 8, !tbaa !1172
  %5 = load ptr, ptr %2, align 8
  %6 = call noalias noundef nonnull ptr @_Znwm(i64 noundef 8) #21
  invoke void @_ZN9grpc_core11json_detail24FinishedJsonObjectLoaderINS_12_GLOBAL__N_110RbacConfig10RbacPolicy5Rules11AuditLoggerELm0EvEC2ERKNS0_3VecINS0_7ElementELm0EEE(ptr noundef nonnull align 8 dereferenceable(8) %6, ptr noundef nonnull align 1 dereferenceable(1) %5)
          to label %7 unwind label %8

7:                                                ; preds = %1
  ret ptr %6

8:                                                ; preds = %1
  %9 = landingpad { ptr, i32 }
          cleanup
  %10 = extractvalue { ptr, i32 } %9, 0
  store ptr %10, ptr %3, align 8
  %11 = extractvalue { ptr, i32 } %9, 1
  store i32 %11, ptr %4, align 4
  call void @_ZdlPvm(ptr noundef %6, i64 noundef 8) #22
  br label %12

12:                                               ; preds = %8
  %13 = load ptr, ptr %3, align 8
  %14 = load i32, ptr %4, align 4
  %15 = insertvalue { ptr, i32 } poison, ptr %13, 0
  %16 = insertvalue { ptr, i32 } %15, i32 %14, 1
  resume { ptr, i32 } %16
}

; Function Attrs: mustprogress nounwind uwtable
define internal void @_ZN9grpc_core11json_detail16JsonObjectLoaderINS_12_GLOBAL__N_110RbacConfig10RbacPolicy5Rules11AuditLoggerELm0EEC2Ev(ptr noundef nonnull align 1 dereferenceable(1) %0) unnamed_addr #6 align 2 {
  %2 = alloca ptr, align 8
  store ptr %0, ptr %2, align 8, !tbaa !1172
  ret void
}

; Function Attrs: mustprogress uwtable
define internal noundef ptr @_ZN9grpc_core12_GLOBAL__N_110RbacConfig10RbacPolicy5Rules11AuditLogger10JsonLoaderERKNS_8JsonArgsE(ptr noundef nonnull align 8 dereferenceable(8) %0) #4 align 2 personality ptr @__gxx_personality_v0 {
  %2 = alloca ptr, align 8
  %3 = alloca %"class.grpc_core::json_detail::JsonObjectLoader.489", align 1
  %4 = alloca ptr, align 8
  %5 = alloca i32, align 4
  store ptr %0, ptr %2, align 8, !tbaa !34
  %6 = load atomic i8, ptr @_ZGVZN9grpc_core12_GLOBAL__N_110RbacConfig10RbacPolicy5Rules11AuditLogger10JsonLoaderERKNS_8JsonArgsEE6loader acquire, align 8
  %7 = icmp eq i8 %6, 0
  br i1 %7, label %8, label %15, !prof !625

8:                                                ; preds = %1
  %9 = call i32 @__cxa_guard_acquire(ptr @_ZGVZN9grpc_core12_GLOBAL__N_110RbacConfig10RbacPolicy5Rules11AuditLogger10JsonLoaderERKNS_8JsonArgsEE6loader) #3
  %10 = icmp ne i32 %9, 0
  br i1 %10, label %11, label %15

11:                                               ; preds = %8
  call void @llvm.lifetime.start.p0(i64 1, ptr %3) #3
  invoke void @_ZN9grpc_core11json_detail16JsonObjectLoaderINS_12_GLOBAL__N_110RbacConfig10RbacPolicy5Rules11AuditLoggerELm0EEC2Ev(ptr noundef nonnull align 1 dereferenceable(1) %3)
          to label %12 unwind label %17

12:                                               ; preds = %11
  %13 = invoke noundef ptr @_ZNK9grpc_core11json_detail16JsonObjectLoaderINS_12_GLOBAL__N_110RbacConfig10RbacPolicy5Rules11AuditLoggerELm0EE6FinishEv(ptr noundef nonnull align 1 dereferenceable(1) %3)
          to label %14 unwind label %17

14:                                               ; preds = %12
  call void @llvm.lifetime.end.p0(i64 1, ptr %3) #3
  store ptr %13, ptr @_ZZN9grpc_core12_GLOBAL__N_110RbacConfig10RbacPolicy5Rules11AuditLogger10JsonLoaderERKNS_8JsonArgsEE6loader, align 8, !tbaa !1170
  call void @__cxa_guard_release(ptr @_ZGVZN9grpc_core12_GLOBAL__N_110RbacConfig10RbacPolicy5Rules11AuditLogger10JsonLoaderERKNS_8JsonArgsEE6loader) #3
  br label %15

15:                                               ; preds = %14, %8, %1
  %16 = load ptr, ptr @_ZZN9grpc_core12_GLOBAL__N_110RbacConfig10RbacPolicy5Rules11AuditLogger10JsonLoaderERKNS_8JsonArgsEE6loader, align 8, !tbaa !1170
  ret ptr %16

17:                                               ; preds = %12, %11
  %18 = landingpad { ptr, i32 }
          cleanup
  %19 = extractvalue { ptr, i32 } %18, 0
  store ptr %19, ptr %4, align 8
  %20 = extractvalue { ptr, i32 } %18, 1
  store i32 %20, ptr %5, align 4
  call void @llvm.lifetime.end.p0(i64 1, ptr %3) #3
  call void @__cxa_guard_abort(ptr @_ZGVZN9grpc_core12_GLOBAL__N_110RbacConfig10RbacPolicy5Rules11AuditLogger10JsonLoaderERKNS_8JsonArgsEE6loader) #3
  br label %21

21:                                               ; preds = %17
  %22 = load ptr, ptr %4, align 8
  %23 = load i32, ptr %5, align 4
  %24 = insertvalue { ptr, i32 } poison, ptr %22, 0
  %25 = insertvalue { ptr, i32 } %24, i32 %23, 1
  resume { ptr, i32 } %25
}

; Function Attrs: mustprogress uwtable
define internal void @_ZNK9grpc_core11json_detail10AutoLoaderINS_12_GLOBAL__N_110RbacConfig10RbacPolicy5Rules11AuditLoggerEE8LoadIntoERKNS_12experimental4JsonERKNS_8JsonArgsEPvPNS_16ValidationErrorsE(ptr noundef nonnull align 8 dereferenceable(8) %0, ptr noundef nonnull align 8 dereferenceable(56) %1, ptr noundef nonnull align 8 dereferenceable(8) %2, ptr noundef %3, ptr noundef %4) unnamed_addr #4 align 2 {
  %6 = alloca ptr, align 8
  %7 = alloca ptr, align 8
  %8 = alloca ptr, align 8
  %9 = alloca ptr, align 8
  %10 = alloca ptr, align 8
  store ptr %0, ptr %6, align 8, !tbaa !1168
  store ptr %1, ptr %7, align 8, !tbaa !10
  store ptr %2, ptr %8, align 8, !tbaa !34
  store ptr %3, ptr %9, align 8, !tbaa !75
  store ptr %4, ptr %10, align 8, !tbaa !12
  %11 = load ptr, ptr %8, align 8, !tbaa !34
  %12 = call noundef ptr @_ZN9grpc_core12_GLOBAL__N_110RbacConfig10RbacPolicy5Rules11AuditLogger10JsonLoaderERKNS_8JsonArgsE(ptr noundef nonnull align 8 dereferenceable(8) %11)
  %13 = load ptr, ptr %7, align 8, !tbaa !10
  %14 = load ptr, ptr %8, align 8, !tbaa !34
  %15 = load ptr, ptr %9, align 8, !tbaa !75
  %16 = load ptr, ptr %10, align 8, !tbaa !12
  %17 = load ptr, ptr %12, align 8, !tbaa !36
  %18 = getelementptr inbounds ptr, ptr %17, i64 0
  %19 = load ptr, ptr %18, align 8
  call void %19(ptr noundef nonnull align 8 dereferenceable(8) %12, ptr noundef nonnull align 8 dereferenceable(56) %13, ptr noundef nonnull align 8 dereferenceable(8) %14, ptr noundef %15, ptr noundef %16)
  ret void
}