; Function Attrs: mustprogress uwtable
define internal void @_ZNK9grpc_core11json_detail10AutoLoaderINS_12_GLOBAL__N_110RbacConfig10RbacPolicy5Rules11AuditLoggerEE8LoadIntoERKNS_12experimental4JsonERKNS_8JsonArgsEPvPNS_16ValidationErrorsE(ptr nonnull readnone align 8 captures(none) %0, ptr noundef nonnull align 8 dereferenceable(56) %1, ptr noundef nonnull align 8 dereferenceable(8) %2, ptr noundef %3, ptr noundef %4) unnamed_addr #3 align 2 personality ptr @__gxx_personality_v0 {
  %6 = load atomic i8, ptr @_ZGVZN9grpc_core12_GLOBAL__N_110RbacConfig10RbacPolicy5Rules11AuditLogger10JsonLoaderERKNS_8JsonArgsEE6loader acquire, align 8
  %7 = icmp eq i8 %6, 0
  br i1 %7, label %8, label %_ZN9grpc_core12_GLOBAL__N_110RbacConfig10RbacPolicy5Rules11AuditLogger10JsonLoaderERKNS_8JsonArgsE.exit, !prof !197

8:                                                ; preds = %5
  %9 = tail call i32 @__cxa_guard_acquire(ptr nonnull @_ZGVZN9grpc_core12_GLOBAL__N_110RbacConfig10RbacPolicy5Rules11AuditLogger10JsonLoaderERKNS_8JsonArgsEE6loader) #26
  %.not.i = icmp eq i32 %9, 0
  br i1 %.not.i, label %_ZN9grpc_core12_GLOBAL__N_110RbacConfig10RbacPolicy5Rules11AuditLogger10JsonLoaderERKNS_8JsonArgsE.exit, label %10

10:                                               ; preds = %8
  %11 = invoke noalias noundef nonnull dereferenceable(8) ptr @_Znwm(i64 noundef 8) #28
          to label %12 unwind label %13

12:                                               ; preds = %10
  store ptr getelementptr inbounds nuw inrange(-16, 8) (i8, ptr @_ZTVN9grpc_core11json_detail24FinishedJsonObjectLoaderINS_12_GLOBAL__N_110RbacConfig10RbacPolicy5Rules11AuditLoggerELm0EvEE, i64 16), ptr %11, align 8, !tbaa !9
  store ptr %11, ptr @_ZZN9grpc_core12_GLOBAL__N_110RbacConfig10RbacPolicy5Rules11AuditLogger10JsonLoaderERKNS_8JsonArgsEE6loader, align 8, !tbaa !426
  tail call void @__cxa_guard_release(ptr nonnull @_ZGVZN9grpc_core12_GLOBAL__N_110RbacConfig10RbacPolicy5Rules11AuditLogger10JsonLoaderERKNS_8JsonArgsEE6loader) #26
  br label %_ZN9grpc_core12_GLOBAL__N_110RbacConfig10RbacPolicy5Rules11AuditLogger10JsonLoaderERKNS_8JsonArgsE.exit

13:                                               ; preds = %10
  %14 = landingpad { ptr, i32 }
          cleanup
  tail call void @__cxa_guard_abort(ptr nonnull @_ZGVZN9grpc_core12_GLOBAL__N_110RbacConfig10RbacPolicy5Rules11AuditLogger10JsonLoaderERKNS_8JsonArgsEE6loader) #26
  resume { ptr, i32 } %14

_ZN9grpc_core12_GLOBAL__N_110RbacConfig10RbacPolicy5Rules11AuditLogger10JsonLoaderERKNS_8JsonArgsE.exit: ; preds = %5, %8, %12
  %15 = load ptr, ptr @_ZZN9grpc_core12_GLOBAL__N_110RbacConfig10RbacPolicy5Rules11AuditLogger10JsonLoaderERKNS_8JsonArgsEE6loader, align 8, !tbaa !426
  %16 = load ptr, ptr %15, align 8, !tbaa !9
  %17 = load ptr, ptr %16, align 8
  tail call void %17(ptr noundef nonnull align 8 dereferenceable(8) %15, ptr noundef nonnull align 8 dereferenceable(56) %1, ptr noundef nonnull align 8 dereferenceable(8) %2, ptr noundef %3, ptr noundef %4)
  ret void
}